target datalayout = "e-m:e-p270:32:32-p271:32:32-p272:64:64-i64:64-i128:128-f80:128-n8:16:32:64-S128"
target triple = "x86_64-unknown-linux-gnu"

%class.symbol = type { ptr }
%class.decl = type { %class.ast, %class.symbol, ptr }
%class.ast = type { i32, i24, i32, i32 }
%class.decl_info = type <{ i32, i32, %class.vector.26, i8, [7 x i8] }>
%class.vector.26 = type { ptr }

; Function Attrs: mustprogress nounwind uwtable
define linkonce_odr hidden noundef i32 @_ZNK9decl_info13get_decl_kindEv(ptr noundef nonnull align 8 dereferenceable(17) %this) #5 comdat align 2 {
entry:
  %this.addr = alloca ptr, align 8
  store ptr %this, ptr %this.addr, align 8
  %this1 = load ptr, ptr %this.addr, align 8
  %m_kind = getelementptr inbounds %class.decl_info, ptr %this1, i32 0, i32 1
  %0 = load i32, ptr %m_kind, align 4
  ret i32 %0
}

; Function Attrs: mustprogress nounwind uwtable
define hidden noundef i32 @_ZN13char_rewriter13mk_char_to_bvEP4exprR7obj_refIS0_11ast_managerE(ptr noundef nonnull align 8 dereferenceable(16) %this, ptr noundef %a, ptr noundef nonnull align 8 dereferenceable(16) %result) #5 align 2 {
entry:
  %this.addr = alloca ptr, align 8
  %a.addr = alloca ptr, align 8
  %result.addr = alloca ptr, align 8
  store ptr %this, ptr %this.addr, align 8
  store ptr %a, ptr %a.addr, align 8
  store ptr %result, ptr %result.addr, align 8
  ret i32 5
}

; Function Attrs: mustprogress uwtable
define linkonce_odr hidden noundef i32 @_ZNK4decl13get_decl_kindEv(ptr noundef nonnull align 8 dereferenceable(32) %this) #4 comdat align 2 {
entry:
  %this.addr = alloca ptr, align 8
  store ptr %this, ptr %this.addr, align 8
  %this1 = load ptr, ptr %this.addr, align 8
  %m_info = getelementptr inbounds %class.decl, ptr %this1, i32 0, i32 2
  %0 = load ptr, ptr %m_info, align 8
  %cmp = icmp eq ptr %0, null
  br i1 %cmp, label %cond.true, label %cond.false

cond.true:                                        ; preds = %entry
  br label %cond.end

cond.false:                                       ; preds = %entry
  %m_info2 = getelementptr inbounds %class.decl, ptr %this1, i32 0, i32 2
  %1 = load ptr, ptr %m_info2, align 8
  %call = call noundef i32 @_ZNK9decl_info13get_decl_kindEv(ptr noundef nonnull align 8 dereferenceable(17) %1)
  br label %cond.end

cond.end:                                         ; preds = %cond.false, %cond.true
  %cond = phi i32 [ -1, %cond.true ], [ %call, %cond.false ]
  ret i32 %cond
}

; Function Attrs: mustprogress uwtable
define hidden noundef i32 @_ZN13char_rewriter11mk_app_coreEP9func_decljPKP4exprR7obj_refIS2_11ast_managerE(ptr noundef nonnull align 8 dereferenceable(16) %this, ptr noundef %f, i32 noundef %num_args, ptr noundef %args, ptr noundef nonnull align 8 dereferenceable(16) %result) #4 align 2 {
entry:
  %this.addr = alloca ptr, align 8
  %f.addr = alloca ptr, align 8
  %num_args.addr = alloca i32, align 4
  %args.addr = alloca ptr, align 8
  %result.addr = alloca ptr, align 8
  %st = alloca i32, align 4
  store ptr %this, ptr %this.addr, align 8
  store ptr %f, ptr %f.addr, align 8
  store i32 %num_args, ptr %num_args.addr, align 4
  store ptr %args, ptr %args.addr, align 8
  store ptr %result, ptr %result.addr, align 8
  %this1 = load ptr, ptr %this.addr, align 8
  store i32 5, ptr %st, align 4
  %0 = load ptr, ptr %f.addr, align 8
  %call = call noundef i32 @_ZNK4decl13get_decl_kindEv(ptr noundef nonnull align 8 dereferenceable(32) %0)
  switch i32 %call, label %sw.epilog [
    i32 0, label %sw.bb
    i32 1, label %sw.bb2
    i32 2, label %sw.bb5
    i32 3, label %sw.bb8
    i32 4, label %sw.bb11
    i32 5, label %sw.bb14
  ]

sw.bb:                                            ; preds = %entry
  br label %sw.epilog

sw.bb2:                                           ; preds = %entry
  %1 = load ptr, ptr %args.addr, align 8
  %arrayidx = getelementptr inbounds ptr, ptr %1, i64 0
  %2 = load ptr, ptr %arrayidx, align 8
  %3 = load ptr, ptr %args.addr, align 8
  %arrayidx3 = getelementptr inbounds ptr, ptr %3, i64 1
  %4 = load ptr, ptr %arrayidx3, align 8
  %5 = load ptr, ptr %result.addr, align 8
  %call4 = call noundef i32 @_ZN13char_rewriter10mk_char_leEP4exprS1_R7obj_refIS0_11ast_managerE(ptr noundef nonnull align 8 dereferenceable(16) %this1, ptr noundef %2, ptr noundef %4, ptr noundef nonnull align 8 dereferenceable(16) %5)
  store i32 %call4, ptr %st, align 4
  br label %sw.epilog

sw.bb5:                                           ; preds = %entry
  %6 = load ptr, ptr %args.addr, align 8
  %arrayidx6 = getelementptr inbounds ptr, ptr %6, i64 0
  %7 = load ptr, ptr %arrayidx6, align 8
  %8 = load ptr, ptr %result.addr, align 8
  %call7 = call noundef i32 @_ZN13char_rewriter14mk_char_to_intEP4exprR7obj_refIS0_11ast_managerE(ptr noundef nonnull align 8 dereferenceable(16) %this1, ptr noundef %7, ptr noundef nonnull align 8 dereferenceable(16) %8)
  store i32 %call7, ptr %st, align 4
  br label %sw.epilog

sw.bb8:                                           ; preds = %entry
  %9 = load ptr, ptr %args.addr, align 8
  %arrayidx9 = getelementptr inbounds ptr, ptr %9, i64 0
  %10 = load ptr, ptr %arrayidx9, align 8
  %11 = load ptr, ptr %result.addr, align 8
  %call10 = call noundef i32 @_ZN13char_rewriter13mk_char_to_bvEP4exprR7obj_refIS0_11ast_managerE(ptr noundef nonnull align 8 dereferenceable(16) %this1, ptr noundef %10, ptr noundef nonnull align 8 dereferenceable(16) %11)
  store i32 %call10, ptr %st, align 4
  br label %sw.epilog

sw.bb11:                                          ; preds = %entry
  %12 = load ptr, ptr %args.addr, align 8
  %arrayidx12 = getelementptr inbounds ptr, ptr %12, i64 0
  %13 = load ptr, ptr %arrayidx12, align 8
  %14 = load ptr, ptr %result.addr, align 8
  %call13 = call noundef i32 @_ZN13char_rewriter15mk_char_from_bvEP4exprR7obj_refIS0_11ast_managerE(ptr noundef nonnull align 8 dereferenceable(16) %this1, ptr noundef %13, ptr noundef nonnull align 8 dereferenceable(16) %14)
  store i32 %call13, ptr %st, align 4
  br label %sw.epilog

sw.bb14:                                          ; preds = %entry
  %15 = load ptr, ptr %args.addr, align 8
  %arrayidx15 = getelementptr inbounds ptr, ptr %15, i64 0
  %16 = load ptr, ptr %arrayidx15, align 8
  %17 = load ptr, ptr %result.addr, align 8
  %call16 = call noundef i32 @_ZN13char_rewriter16mk_char_is_digitEP4exprR7obj_refIS0_11ast_managerE(ptr noundef nonnull align 8 dereferenceable(16) %this1, ptr noundef %16, ptr noundef nonnull align 8 dereferenceable(16) %17)
  store i32 %call16, ptr %st, align 4
  br label %sw.epilog

sw.epilog:                                        ; preds = %sw.bb14, %sw.bb11, %sw.bb8, %sw.bb5, %sw.bb2, %sw.bb, %entry
  %18 = load i32, ptr %st, align 4
  ret i32 %18
}