; Function Attrs: mustprogress uwtable
define hidden noundef i32 @_ZN13char_rewriter11mk_app_coreEP9func_decljPKP4exprR7obj_refIS2_11ast_managerE(ptr nocapture noundef nonnull readonly align 8 dereferenceable(16) %this, ptr nocapture noundef readonly %f, i32 noundef %num_args, ptr nocapture noundef readonly %args, ptr nocapture noundef nonnull align 8 dereferenceable(16) %result) local_unnamed_addr #3 align 2 {
entry:
  %m_info.i = getelementptr inbounds i8, ptr %f, i64 24
  %0 = load ptr, ptr %m_info.i, align 8
  %cmp.i = icmp eq ptr %0, null
  br i1 %cmp.i, label %sw.epilog, label %_ZNK4decl13get_decl_kindEv.exit

_ZNK4decl13get_decl_kindEv.exit:                  ; preds = %entry
  %m_kind.i.i = getelementptr inbounds i8, ptr %0, i64 4
  %1 = load i32, ptr %m_kind.i.i, align 4
  switch i32 %1, label %sw.epilog [
    i32 5, label %sw.bb14
    i32 1, label %sw.bb2
    i32 2, label %sw.bb5
    i32 4, label %sw.bb11
  ]

sw.bb2:                                           ; preds = %_ZNK4decl13get_decl_kindEv.exit
  %2 = load ptr, ptr %args, align 8
  %arrayidx3 = getelementptr inbounds i8, ptr %args, i64 8
  %3 = load ptr, ptr %arrayidx3, align 8
  %call4 = tail call noundef i32 @_ZN13char_rewriter10mk_char_leEP4exprS1_R7obj_refIS0_11ast_managerE(ptr noundef nonnull align 8 dereferenceable(16) %this, ptr noundef %2, ptr noundef %3, ptr noundef nonnull align 8 dereferenceable(16) %result), !range !4
  br label %sw.epilog

sw.bb5:                                           ; preds = %_ZNK4decl13get_decl_kindEv.exit
  %4 = load ptr, ptr %args, align 8
  %call7 = tail call noundef i32 @_ZN13char_rewriter14mk_char_to_intEP4exprR7obj_refIS0_11ast_managerE(ptr noundef nonnull align 8 dereferenceable(16) %this, ptr noundef %4, ptr noundef nonnull align 8 dereferenceable(16) %result), !range !4
  br label %sw.epilog

sw.bb11:                                          ; preds = %_ZNK4decl13get_decl_kindEv.exit
  %5 = load ptr, ptr %args, align 8
  %call13 = tail call noundef i32 @_ZN13char_rewriter15mk_char_from_bvEP4exprR7obj_refIS0_11ast_managerE(ptr noundef nonnull align 8 dereferenceable(16) %this, ptr noundef %5, ptr noundef nonnull align 8 dereferenceable(16) %result), !range !4
  br label %sw.epilog

sw.bb14:                                          ; preds = %_ZNK4decl13get_decl_kindEv.exit
  %6 = load ptr, ptr %args, align 8
  %call16 = tail call noundef i32 @_ZN13char_rewriter16mk_char_is_digitEP4exprR7obj_refIS0_11ast_managerE(ptr noundef nonnull align 8 dereferenceable(16) %this, ptr noundef %6, ptr noundef nonnull align 8 dereferenceable(16) %result), !range !4
  br label %sw.epilog

sw.epilog:                                        ; preds = %entry, %sw.bb14, %sw.bb11, %sw.bb5, %sw.bb2, %_ZNK4decl13get_decl_kindEv.exit
  %st.0 = phi i32 [ %call13, %sw.bb11 ], [ %call7, %sw.bb5 ], [ %call4, %sw.bb2 ], [ %call16, %sw.bb14 ], [ 5, %_ZNK4decl13get_decl_kindEv.exit ], [ 5, %entry ]
  ret i32 %st.0
}